; Function Attrs: mustprogress ssp uwtable
define dso_local void @_ZN6open3d4apps22offline_reconstruction15MakeCleanFolderERKNSt7__cxx1112basic_stringIcSt11char_traitsIcESaIcEEE(ptr noundef nonnull align 8 dereferenceable(32) %0) local_unnamed_addr #4 {
  %2 = tail call noundef zeroext i1 @_ZN6open3d7utility10filesystem15DirectoryExistsERKNSt7__cxx1112basic_stringIcSt11char_traitsIcESaIcEEE(ptr noundef nonnull align 8 dereferenceable(32) %0)
  br i1 %2, label %3, label %5

3:                                                ; preds = %1
  %4 = tail call noundef zeroext i1 @_ZN6open3d7utility10filesystem15DeleteDirectoryERKNSt7__cxx1112basic_stringIcSt11char_traitsIcESaIcEEE(ptr noundef nonnull align 8 dereferenceable(32) %0)
  br label %5

5:                                                ; preds = %3, %1
  %6 = tail call noundef zeroext i1 @_ZN6open3d7utility10filesystem13MakeDirectoryERKNSt7__cxx1112basic_stringIcSt11char_traitsIcESaIcEEE(ptr noundef nonnull align 8 dereferenceable(32) %0)
  ret void
}